target datalayout = "e-m:e-p270:32:32-p271:32:32-p272:64:64-i64:64-i128:128-f80:128-n8:16:32:64-S128"
target triple = "x86_64-pc-linux-gnu"

%"class.(anonymous namespace)::SDiagsWriter" = type { %"class.clang::DiagnosticConsumer", ptr, i8, i8, i8, %"class.std::shared_ptr" }
%"class.clang::DiagnosticConsumer" = type { ptr, i32, i32 }
%"class.std::shared_ptr" = type { %"class.std::__shared_ptr" }
%"class.std::__shared_ptr" = type { ptr, %"class.std::__shared_count" }
%"class.std::__shared_count" = type { ptr }
%"class.std::error_code" = type { i32, ptr }
%"struct.(anonymous namespace)::SDiagsWriter::SharedState" = type { %"class.llvm::IntrusiveRefCntPtr", %"class.llvm::SmallString", %"class.llvm::BitstreamWriter", %"class.std::__cxx11::basic_string", %"class.(anonymous namespace)::AbbreviationMap", %"class.llvm::SmallVector.29", %"class.llvm::SmallString.35", %"class.llvm::DenseSet", %"class.llvm::DenseMap.41", %"class.llvm::DenseMap.44", i8, %"class.std::unique_ptr.47" }
%"class.llvm::IntrusiveRefCntPtr" = type { ptr }
%"class.llvm::SmallString" = type { %"class.llvm::SmallVector" }
%"class.llvm::SmallVector" = type { %"class.llvm::SmallVectorImpl", %"struct.llvm::SmallVectorStorage" }
%"class.llvm::SmallVectorImpl" = type { %"class.llvm::SmallVectorTemplateBase" }
%"class.llvm::SmallVectorTemplateBase" = type { %"class.llvm::SmallVectorTemplateCommon" }
%"class.llvm::SmallVectorTemplateCommon" = type { %"class.llvm::SmallVectorBase" }
%"class.llvm::SmallVectorBase" = type { ptr, i64, i64 }
%"struct.llvm::SmallVectorStorage" = type { [1024 x i8] }
%"class.llvm::BitstreamWriter" = type { %"class.llvm::SmallVector.11", ptr, ptr, i64, i32, i32, i32, i32, %"class.std::vector", %"class.std::optional", %"class.std::vector.16", %"class.std::vector.21" }
%"class.llvm::SmallVector.11" = type { %"class.llvm::SmallVectorImpl" }
%"class.std::vector" = type { %"struct.std::_Vector_base" }
%"struct.std::_Vector_base" = type { %"struct.std::_Vector_base<std::shared_ptr<llvm::BitCodeAbbrev>, std::allocator<std::shared_ptr<llvm::BitCodeAbbrev>>>::_Vector_impl" }
%"struct.std::_Vector_base<std::shared_ptr<llvm::BitCodeAbbrev>, std::allocator<std::shared_ptr<llvm::BitCodeAbbrev>>>::_Vector_impl" = type { %"struct.std::_Vector_base<std::shared_ptr<llvm::BitCodeAbbrev>, std::allocator<std::shared_ptr<llvm::BitCodeAbbrev>>>::_Vector_impl_data" }
%"struct.std::_Vector_base<std::shared_ptr<llvm::BitCodeAbbrev>, std::allocator<std::shared_ptr<llvm::BitCodeAbbrev>>>::_Vector_impl_data" = type { ptr, ptr, ptr }
%"class.std::optional" = type { %"struct.std::_Optional_base" }
%"struct.std::_Optional_base" = type { %"struct.std::_Optional_payload" }
%"struct.std::_Optional_payload" = type { %"struct.std::_Optional_payload_base.base", [7 x i8] }
%"struct.std::_Optional_payload_base.base" = type <{ %"union.std::_Optional_payload_base<unsigned long>::_Storage", i8 }>
%"union.std::_Optional_payload_base<unsigned long>::_Storage" = type { i64 }
%"class.std::vector.16" = type { %"struct.std::_Vector_base.17" }
%"struct.std::_Vector_base.17" = type { %"struct.std::_Vector_base<llvm::BitstreamWriter::Block, std::allocator<llvm::BitstreamWriter::Block>>::_Vector_impl" }
%"struct.std::_Vector_base<llvm::BitstreamWriter::Block, std::allocator<llvm::BitstreamWriter::Block>>::_Vector_impl" = type { %"struct.std::_Vector_base<llvm::BitstreamWriter::Block, std::allocator<llvm::BitstreamWriter::Block>>::_Vector_impl_data" }
%"struct.std::_Vector_base<llvm::BitstreamWriter::Block, std::allocator<llvm::BitstreamWriter::Block>>::_Vector_impl_data" = type { ptr, ptr, ptr }
%"class.std::vector.21" = type { %"struct.std::_Vector_base.22" }
%"struct.std::_Vector_base.22" = type { %"struct.std::_Vector_base<llvm::BitstreamWriter::BlockInfo, std::allocator<llvm::BitstreamWriter::BlockInfo>>::_Vector_impl" }
%"struct.std::_Vector_base<llvm::BitstreamWriter::BlockInfo, std::allocator<llvm::BitstreamWriter::BlockInfo>>::_Vector_impl" = type { %"struct.std::_Vector_base<llvm::BitstreamWriter::BlockInfo, std::allocator<llvm::BitstreamWriter::BlockInfo>>::_Vector_impl_data" }
%"struct.std::_Vector_base<llvm::BitstreamWriter::BlockInfo, std::allocator<llvm::BitstreamWriter::BlockInfo>>::_Vector_impl_data" = type { ptr, ptr, ptr }
%"class.std::__cxx11::basic_string" = type { %"struct.std::__cxx11::basic_string<char>::_Alloc_hider", i64, %union.anon }
%"struct.std::__cxx11::basic_string<char>::_Alloc_hider" = type { ptr }
%union.anon = type { i64, [8 x i8] }
%"class.(anonymous namespace)::AbbreviationMap" = type { %"class.llvm::DenseMap" }
%"class.llvm::DenseMap" = type <{ ptr, i32, i32, i32, [4 x i8] }>
%"class.llvm::SmallVector.29" = type { %"class.llvm::SmallVectorImpl.30", %"struct.llvm::SmallVectorStorage.34" }
%"class.llvm::SmallVectorImpl.30" = type { %"class.llvm::SmallVectorTemplateBase.31" }
%"class.llvm::SmallVectorTemplateBase.31" = type { %"class.llvm::SmallVectorTemplateCommon.32" }
%"class.llvm::SmallVectorTemplateCommon.32" = type { %"class.llvm::SmallVectorBase.33" }
%"class.llvm::SmallVectorBase.33" = type { ptr, i32, i32 }
%"struct.llvm::SmallVectorStorage.34" = type { [512 x i8] }
%"class.llvm::SmallString.35" = type { %"class.llvm::SmallVector.36" }
%"class.llvm::SmallVector.36" = type { %"class.llvm::SmallVectorImpl", %"struct.llvm::SmallVectorStorage.37" }
%"struct.llvm::SmallVectorStorage.37" = type { [256 x i8] }
%"class.llvm::DenseSet" = type { %"class.llvm::detail::DenseSetImpl" }
%"class.llvm::detail::DenseSetImpl" = type { %"class.llvm::DenseMap.38" }
%"class.llvm::DenseMap.38" = type <{ ptr, i32, i32, i32, [4 x i8] }>
%"class.llvm::DenseMap.41" = type <{ ptr, i32, i32, i32, [4 x i8] }>
%"class.llvm::DenseMap.44" = type <{ ptr, i32, i32, i32, [4 x i8] }>
%"class.std::unique_ptr.47" = type { %"struct.std::__uniq_ptr_data.48" }
%"struct.std::__uniq_ptr_data.48" = type { %"class.std::__uniq_ptr_impl.49" }
%"class.std::__uniq_ptr_impl.49" = type { %"class.std::tuple.50" }
%"class.std::tuple.50" = type { %"struct.std::_Tuple_impl.51" }
%"struct.std::_Tuple_impl.51" = type { %"struct.std::_Head_base.54" }
%"struct.std::_Head_base.54" = type { ptr }
%"class.(anonymous namespace)::SDiagsMerger" = type { %"class.clang::serialized_diags::SerializedDiagnosticReader", ptr, %"class.llvm::DenseMap", %"class.llvm::DenseMap", %"class.llvm::DenseMap" }
%"class.clang::serialized_diags::SerializedDiagnosticReader" = type { ptr }

; Function Attrs: mustprogress nounwind uwtable
define internal noundef ptr @_ZNKSt12__shared_ptrIN12_GLOBAL__N_112SDiagsWriter11SharedStateELN9__gnu_cxx12_Lock_policyE2EE3getEv(ptr noundef nonnull align 8 dereferenceable(16) %0) #0 align 2 {
  %2 = alloca ptr, align 8
  store ptr %0, ptr %2, align 8
  %3 = load ptr, ptr %2, align 8
  %4 = getelementptr inbounds nuw %"class.std::__shared_ptr", ptr %3, i32 0, i32 0
  %5 = load ptr, ptr %4, align 8
  ret ptr %5
}

; Function Attrs: mustprogress nounwind uwtable
define internal noundef ptr @_ZNKSt19__shared_ptr_accessIN12_GLOBAL__N_112SDiagsWriter11SharedStateELN9__gnu_cxx12_Lock_policyE2ELb0ELb0EE6_M_getEv(ptr noundef nonnull align 1 dereferenceable(1) %0) #0 align 2 {
  %2 = alloca ptr, align 8
  store ptr %0, ptr %2, align 8
  %3 = load ptr, ptr %2, align 8
  %4 = call noundef ptr @_ZNKSt12__shared_ptrIN12_GLOBAL__N_112SDiagsWriter11SharedStateELN9__gnu_cxx12_Lock_policyE2EE3getEv(ptr noundef nonnull align 8 dereferenceable(16) %3) #13
  ret ptr %4
}

; Function Attrs: mustprogress nounwind uwtable
define internal noundef ptr @_ZNKSt19__shared_ptr_accessIN12_GLOBAL__N_112SDiagsWriter11SharedStateELN9__gnu_cxx12_Lock_policyE2ELb0ELb0EEptEv(ptr noundef nonnull align 1 dereferenceable(1) %0) #0 align 2 {
  %2 = alloca ptr, align 8
  store ptr %0, ptr %2, align 8
  %3 = load ptr, ptr %2, align 8
  %4 = call noundef ptr @_ZNKSt19__shared_ptr_accessIN12_GLOBAL__N_112SDiagsWriter11SharedStateELN9__gnu_cxx12_Lock_policyE2ELb0ELb0EE6_M_getEv(ptr noundef nonnull align 1 dereferenceable(1) %3) #13
  ret ptr %4
}

; Function Attrs: mustprogress nounwind uwtable
define linkonce_odr hidden void @_ZNSt10error_codeC2Ev(ptr noundef nonnull align 8 dereferenceable(16) %0) unnamed_addr #0 comdat align 2 {
  %2 = alloca ptr, align 8
  store ptr %0, ptr %2, align 8
  %3 = load ptr, ptr %2, align 8
  %4 = getelementptr inbounds nuw %"class.std::error_code", ptr %3, i32 0, i32 0
  store i32 0, ptr %4, align 8
  %5 = getelementptr inbounds nuw %"class.std::error_code", ptr %3, i32 0, i32 1
  %6 = call noundef nonnull align 8 dereferenceable(8) ptr @_ZNSt3_V215system_categoryEv() #18
  store ptr %6, ptr %5, align 8
  ret void
}

; Function Attrs: mustprogress nounwind uwtable
define internal void @_ZN12_GLOBAL__N_112SDiagsWriter14EnterDiagBlockEv(ptr noundef nonnull align 8 dereferenceable(48) %0) #0 align 2 {
  %2 = alloca ptr, align 8
  store ptr %0, ptr %2, align 8
  %3 = load ptr, ptr %2, align 8
  %4 = getelementptr inbounds nuw %"class.(anonymous namespace)::SDiagsWriter", ptr %3, i32 0, i32 5
  %5 = call noundef ptr @_ZNKSt19__shared_ptr_accessIN12_GLOBAL__N_112SDiagsWriter11SharedStateELN9__gnu_cxx12_Lock_policyE2ELb0ELb0EEptEv(ptr noundef nonnull align 1 dereferenceable(1) %4) #13
  %6 = getelementptr inbounds nuw %"struct.(anonymous namespace)::SDiagsWriter::SharedState", ptr %5, i32 0, i32 2
  call void @_ZN4llvm15BitstreamWriter13EnterSubblockEjj(ptr noundef nonnull align 8 dereferenceable(152) %6, i32 noundef 9, i32 noundef 4)
  ret void
}

; Function Attrs: mustprogress nounwind uwtable
define internal { i32, ptr } @_ZN12_GLOBAL__N_112SDiagsMerger22visitStartOfDiagnosticEv(ptr noundef nonnull align 8 dereferenceable(88) %0) unnamed_addr #0 align 2 {
  %2 = alloca %"class.std::error_code", align 8
  %3 = alloca ptr, align 8
  store ptr %0, ptr %3, align 8
  %4 = load ptr, ptr %3, align 8
  %5 = getelementptr inbounds nuw %"class.(anonymous namespace)::SDiagsMerger", ptr %4, i32 0, i32 1
  %6 = load ptr, ptr %5, align 8
  call void @_ZN12_GLOBAL__N_112SDiagsWriter14EnterDiagBlockEv(ptr noundef nonnull align 8 dereferenceable(48) %6)
  call void @_ZNSt10error_codeC2Ev(ptr noundef nonnull align 8 dereferenceable(16) %2) #13
  %7 = load { i32, ptr }, ptr %2, align 8
  ret { i32, ptr } %7
}