; Function Attrs: mustprogress nounwind uwtable
define internal { i32, ptr } @_ZN12_GLOBAL__N_112SDiagsMerger22visitStartOfDiagnosticEv(ptr noundef nonnull readonly align 8 captures(none) dereferenceable(88) %0) unnamed_addr #0 align 2 {
  %2 = getelementptr inbounds nuw i8, ptr %0, i64 8
  %3 = load ptr, ptr %2, align 8
  %4 = getelementptr i8, ptr %3, i64 32
  %.val = load ptr, ptr %4, align 8
  %5 = getelementptr inbounds nuw i8, ptr %.val, i64 1056
  tail call void @_ZN4llvm15BitstreamWriter13EnterSubblockEjj(ptr noundef nonnull align 8 dereferenceable(152) %5, i32 noundef 9, i32 noundef 4)
  %6 = tail call noundef nonnull align 8 dereferenceable(8) ptr @_ZNSt3_V215system_categoryEv() #20
  %.fca.1.insert = insertvalue { i32, ptr } { i32 0, ptr poison }, ptr %6, 1
  ret { i32, ptr } %.fca.1.insert
}